(lp0
VUserInfo_1
p1
aVUserInfo_3
p2
aVWeblogInfo_2
p3
aVWeblogInfo_13
p4
aVUserInfo_5
p5
aVUserInfo_6
p6
aVUserInfo_7
p7
aVUserInfo_9
p8
aVUserInfo_10
p9
aVUserInfo_14
p10
aVUserInfo_15
p11
aVUserInfo_16
p12
aVUserInfo_17
p13
aVUserInfo_19
p14
aVUserInfo_22
p15
aVUserInfo_23
p16
aVUserInfo_24
p17
aVEducation_Info2
p18
aVEducation_Info4
p19
aVEducation_Info6
p20
aVEducation_Info8
p21
aVWeblogInfo_19
p22
aVWeblogInfo_20
p23
aVWeblogInfo_21
p24
aVWeblogInfo_25
p25
aVWeblogInfo_28
p26
aVWeblogInfo_29
p27
aVWeblogInfo_30
p28
aVWeblogInfo_31
p29
aVWeblogInfo_34
p30
aVWeblogInfo_37
p31
aVWeblogInfo_39
p32
aVWeblogInfo_41
p33
aVWeblogInfo_44
p34
aVWeblogInfo_45
p35
aVWeblogInfo_47
p36
aVWeblogInfo_48
p37
aVWeblogInfo_50
p38
aVWeblogInfo_51
p39
aVWeblogInfo_53
p40
aVWeblogInfo_54
p41
aVWeblogInfo_56
p42
aVWeblogInfo_57
p43
aVSocialNetwork_1
p44
aVSocialNetwork_7
p45
aVSocialNetwork_12
p46
aVSocialNetwork_13
p47
aVSocialNetwork_15
p48
aVSocialNetwork_17
p49
a.