(lp0
VWeblogInfo_5
p1
aVWeblogInfo_7
p2
aVWeblogInfo_9
p3
aVWeblogInfo_12
p4
aVWeblogInfo_15
p5
aVWeblogInfo_17
p6
aVUserInfo_12
p7
aVWeblogInfo_24
p8
aVWeblogInfo_33
p9
aVWeblogInfo_42
p10
aVThirdParty_Info_Period1_2
p11
aVThirdParty_Info_Period1_4
p12
aVThirdParty_Info_Period1_5
p13
aVThirdParty_Info_Period1_7
p14
aVThirdParty_Info_Period1_9
p15
aVThirdParty_Info_Period1_10
p16
aVThirdParty_Info_Period1_12
p17
aVThirdParty_Info_Period1_14
p18
aVThirdParty_Info_Period1_16
p19
aVThirdParty_Info_Period2_1
p20
aVThirdParty_Info_Period2_3
p21
aVThirdParty_Info_Period2_5
p22
aVThirdParty_Info_Period2_7
p23
aVThirdParty_Info_Period2_9
p24
aVThirdParty_Info_Period2_10
p25
aVThirdParty_Info_Period2_12
p26
aVThirdParty_Info_Period2_14
p27
aVThirdParty_Info_Period2_16
p28
aVThirdParty_Info_Period3_1
p29
aVThirdParty_Info_Period3_3
p30
aVThirdParty_Info_Period3_5
p31
aVThirdParty_Info_Period3_7
p32
aVThirdParty_Info_Period3_9
p33
aVThirdParty_Info_Period3_10
p34
aVThirdParty_Info_Period3_12
p35
aVThirdParty_Info_Period3_14
p36
aVThirdParty_Info_Period3_16
p37
aVThirdParty_Info_Period4_1
p38
aVThirdParty_Info_Period4_3
p39
aVThirdParty_Info_Period4_5
p40
aVThirdParty_Info_Period4_7
p41
aVThirdParty_Info_Period4_9
p42
aVThirdParty_Info_Period4_10
p43
aVThirdParty_Info_Period4_12
p44
aVThirdParty_Info_Period4_14
p45
aVThirdParty_Info_Period4_16
p46
aVThirdParty_Info_Period5_1
p47
aVThirdParty_Info_Period5_2
p48
aVThirdParty_Info_Period5_4
p49
aVThirdParty_Info_Period5_5
p50
aVThirdParty_Info_Period5_7
p51
aVThirdParty_Info_Period5_9
p52
aVThirdParty_Info_Period5_10
p53
aVThirdParty_Info_Period5_12
p54
aVThirdParty_Info_Period5_14
p55
aVThirdParty_Info_Period5_16
p56
aVThirdParty_Info_Period6_1
p57
aVThirdParty_Info_Period6_2
p58
aVThirdParty_Info_Period6_3
p59
aVThirdParty_Info_Period6_4
p60
aVThirdParty_Info_Period6_5
p61
aVThirdParty_Info_Period6_6
p62
aVThirdParty_Info_Period6_7
p63
aVThirdParty_Info_Period6_8
p64
aVThirdParty_Info_Period6_9
p65
aVThirdParty_Info_Period6_10
p66
aVThirdParty_Info_Period6_11
p67
aVThirdParty_Info_Period6_12
p68
aVThirdParty_Info_Period6_13
p69
aVThirdParty_Info_Period6_14
p70
aVThirdParty_Info_Period6_15
p71
aVThirdParty_Info_Period6_16
p72
aVThirdParty_Info_Period6_17
p73
aVThirdParty_Info_Period7_2
p74
aVThirdParty_Info_Period7_4
p75
aVThirdParty_Info_Period7_6
p76
aVThirdParty_Info_Period7_8
p77
aVThirdParty_Info_Period7_10
p78
aVThirdParty_Info_Period7_12
p79
aVThirdParty_Info_Period7_14
p80
aVThirdParty_Info_Period7_16
p81
aVSocialNetwork_3
p82
aVSocialNetwork_5
p83
aVSocialNetwork_8
p84
aVSocialNetwork_9
p85
aVSocialNetwork_10
p86
aVUserupdateInfo_7_unique
p87
aVUserupdateInfo_7_IDNUMBER
p88
aVUserupdateInfo_7_HASBUYCAR
p89
aVUserupdateInfo_7_MARRIAGESTATUSID
p90
aVUserupdateInfo_7_PHONE
p91
aVUserupdateInfo_30_unique
p92
aVUserupdateInfo_30_IDNUMBER
p93
aVUserupdateInfo_30_MARRIAGESTATUSID
p94
aVUserupdateInfo_60_freq
p95
aVUserupdateInfo_60_avg_count
p96
aVUserupdateInfo_60_HASBUYCAR
p97
aVUserupdateInfo_60_PHONE
p98
aVUserupdateInfo_90_unique
p99
aVUserupdateInfo_90_IDNUMBER
p100
aVUserupdateInfo_90_MARRIAGESTATUSID
p101
aVUserupdateInfo_120_freq
p102
aVUserupdateInfo_120_avg_count
p103
aVUserupdateInfo_120_HASBUYCAR
p104
aVUserupdateInfo_120_PHONE
p105
aVUserupdateInfo_150_unique
p106
aVUserupdateInfo_150_IDNUMBER
p107
aVUserupdateInfo_150_MARRIAGESTATUSID
p108
aVUserupdateInfo_180_freq
p109
aVUserupdateInfo_180_avg_count
p110
aVUserupdateInfo_180_HASBUYCAR
p111
aVUserupdateInfo_180_PHONE
p112
aVLogInfo1_7_unique
p113
aVLogInfo1_7_avg_count
p114
aVLogInfo2_7_unique
p115
aVLogInfo2_7_avg_count
p116
aVLogInfo1_30_unique
p117
aVLogInfo2_30_count
p118
aVLogInfo2_30_avg_count
p119
aVLogInfo1_60_unique
p120
aVLogInfo1_60_avg_count
p121
aVLogInfo2_60_count
p122
aVLogInfo2_60_avg_count
p123
aVLogInfo1_90_unique
p124
aVLogInfo2_90_count
p125
aVLogInfo2_90_unique
p126
aVLogInfo2_90_avg_count
p127
aVLogInfo1_120_unique
p128
aVLogInfo1_120_avg_count
p129
aVLogInfo2_120_unique
p130
aVLogInfo2_120_avg_count
p131
aVLogInfo1_150_unique
p132
aVLogInfo1_150_avg_count
p133
aVLogInfo2_150_unique
p134
aVLogInfo1_180_count
p135
aVLogInfo1_180_unique
p136
aVLogInfo1_180_avg_count
p137
aVLogInfo2_180_unique
p138
aS'UserInfo_1_encoding'
p139
aS'UserInfo_3_encoding'
p140
aS'WeblogInfo_2_encoding'
p141
aS'UserInfo_7_encoding'
p142
aS'UserInfo_9_encoding'
p143
aS'UserInfo_14_encoding'
p144
aS'UserInfo_15_encoding'
p145
aS'UserInfo_16_encoding'
p146
aS'UserInfo_19_encoding'
p147
aS'UserInfo_24_encoding'
p148
aS'WeblogInfo_19_encoding'
p149
aS'WeblogInfo_20_encoding'
p150
aS'WeblogInfo_30_encoding'
p151
aS'WeblogInfo_45_encoding'
p152
aS'WeblogInfo_51_encoding'
p153
aS'WeblogInfo_57_encoding'
p154
a.