(dp0
S'WeblogInfo_19_encoding'
p1
cnumpy.core.multiarray
scalar
p2
(cnumpy
dtype
p3
(S'f8'
p4
I0
I1
tp5
Rp6
(I3
S'<'
p7
NNNI-1
I-1
I0
tp8
bS'\x01\x07\x8cz\xabP\x82?'
p9
tp10
Rp11
sVUserupdateInfo_7_PHONE
p12
g2
(g6
S'\xb2\x1a\x10,a\xcb\x91?'
p13
tp14
Rp15
sVUserInfo_6
p16
g2
(g6
S'\xc0\x1e\x0f3\x0f\x14\x89?'
p17
tp18
Rp19
sVUserInfo_5
p20
g2
(g6
S'\n\xf4\x07=\x14\xe2\x8a?'
p21
tp22
Rp23
sS'UserInfo_9_encoding'
p24
g2
(g6
S'T\x05\x17\xf3\xc3\x11h?'
p25
tp26
Rp27
sS'UserInfo_14_encoding'
p28
g2
(g6
S'\xb2\x1e\xfd\xc7g\x95\xba?'
p29
tp30
Rp31
sVUserupdateInfo_7_HASBUYCAR
p32
g2
(g6
S'x\xba7\x9a\xba\xc5\x91?'
p33
tp34
Rp35
sVLogInfo1_180_avg_count
p36
g2
(g6
S'\xed\x9c\xa4\x95\xcb#\x8b?'
p37
tp38
Rp39
sVLogInfo1_60_avg_count
p40
g2
(g6
S'\xf8\xf2_\xefM\x05\x93?'
p41
tp42
Rp43
sVThirdParty_Info_Period1_5
p44
g2
(g6
S'\xdb\xcf\xd0\xbf\xe43i?'
p45
tp46
Rp47
sS'UserInfo_19_encoding'
p48
g2
(g6
S'6\xf2T\xd4e\xe0\xa9?'
p49
tp50
Rp51
sVThirdParty_Info_Period3_10
p52
g2
(g6
S'\xcd\xa0u7g\x82\xa7?'
p53
tp54
Rp55
sVThirdParty_Info_Period5_5
p56
g2
(g6
S'\x95\xd1)\\\x0f.\xaf?'
p57
tp58
Rp59
sVWeblogInfo_21
p60
g2
(g6
S'\xe9\xe6\x1d\x15\xd9\xb0\x82?'
p61
tp62
Rp63
sVThirdParty_Info_Period6_8
p64
g2
(g6
S'/\x9d:|\x80\x01\xb1?'
p65
tp66
Rp67
sVThirdParty_Info_Period6_9
p68
g2
(g6
S'\xda\xc9< c\xe8\xb3?'
p69
tp70
Rp71
sVSocialNetwork_13
p72
g2
(g6
S'\xa4\xb8_\x0c\x7f`\x80?'
p73
tp74
Rp75
sVThirdParty_Info_Period5_2
p76
g2
(g6
S"\xa3'\xc1\x01\xd3=\xb5?"
p77
tp78
Rp79
sVThirdParty_Info_Period6_2
p80
g2
(g6
S'/\x9d:|\x80\x01\xb1?'
p81
tp82
Rp83
sVThirdParty_Info_Period6_3
p84
g2
(g6
S'/\x9d:|\x80\x01\xb1?'
p85
tp86
Rp87
sVThirdParty_Info_Period6_6
p88
g2
(g6
S'/\x9d:|\x80\x01\xb1?'
p89
tp90
Rp91
sVThirdParty_Info_Period6_7
p92
g2
(g6
S'/\x9d:|\x80\x01\xb1?'
p93
tp94
Rp95
sVThirdParty_Info_Period6_4
p96
g2
(g6
S'/\x9d:|\x80\x01\xb1?'
p97
tp98
Rp99
sVThirdParty_Info_Period6_5
p100
g2
(g6
S"W'O\x1f\xfes\xb2?"
p101
tp102
Rp103
sVLogInfo2_60_count
p104
g2
(g6
S'\x1e\xd0$\xa3&\x10\x8b?'
p105
tp106
Rp107
sVLogInfo2_7_avg_count
p108
g2
(g6
S'\xa8\x00\xb4\x95\xea\xce\x90?'
p109
tp110
Rp111
sVThirdParty_Info_Period6_14
p112
g2
(g6
S'\xd3>.\xfd/\x0f\xb1?'
p113
tp114
Rp115
sVThirdParty_Info_Period6_15
p116
g2
(g6
S'/\x9d:|\x80\x01\xb1?'
p117
tp118
Rp119
sVThirdParty_Info_Period6_16
p120
g2
(g6
S'\xdbd\xd9_`z\xb1?'
p121
tp122
Rp123
sVThirdParty_Info_Period6_17
p124
g2
(g6
S'/\x9d:|\x80\x01\xb1?'
p125
tp126
Rp127
sVThirdParty_Info_Period6_10
p128
g2
(g6
S'\x8a\xb7\x84CBw\xb8?'
p129
tp130
Rp131
sVThirdParty_Info_Period6_11
p132
g2
(g6
S'/\x9d:|\x80\x01\xb1?'
p133
tp134
Rp135
sVThirdParty_Info_Period6_12
p136
g2
(g6
S'/\x9d:|\x80\x01\xb1?'
p137
tp138
Rp139
sVThirdParty_Info_Period6_13
p140
g2
(g6
S'/\x9d:|\x80\x01\xb1?'
p141
tp142
Rp143
sS'WeblogInfo_20_encoding'
p144
g2
(g6
S"hst\xf5\xbc'\xb1?"
p145
tp146
Rp147
sVThirdParty_Info_Period2_10
p148
g2
(g6
S'\xaaHSg\x9d\x17\xa0?'
p149
tp150
Rp151
sVUserupdateInfo_7_MARRIAGESTATUSID
p152
g2
(g6
S'\xb2\x1a\x10,a\xcb\x91?'
p153
tp154
Rp155
sVThirdParty_Info_Period4_10
p156
g2
(g6
S'\x8a\xabAL \xf1\xae?'
p157
tp158
Rp159
sVThirdParty_Info_Period1_10
p160
g2
(g6
S'\xc81\\>\x14J\xa3?'
p161
tp162
Rp163
sVLogInfo1_7_avg_count
p164
g2
(g6
S'-\xfa\xdc\x82t\xc4\x90?'
p165
tp166
Rp167
sVLogInfo2_90_avg_count
p168
g2
(g6
S" \x99'\xb3\x0e\x97\x93?"
p169
tp170
Rp171
sS'UserInfo_16_encoding'
p172
g2
(g6
S'Y\xec2\xb2\xaa\xc3\xb4?'
p173
tp174
Rp175
sVLogInfo1_180_unique
p176
g2
(g6
S'\xeb\nNf\x98%s?'
p177
tp178
Rp179
sVLogInfo1_120_avg_count
p180
g2
(g6
S'\xd6\xc4}\x06\xb7\x05\x91?'
p181
tp182
Rp183
sS'WeblogInfo_2_encoding'
p184
g2
(g6
S'\xef\xcc\xa9\xaa\x11C\xa2?'
p185
tp186
Rp187
sVLogInfo2_120_avg_count
p188
g2
(g6
S'X\xed\x14F\tS\x8b?'
p189
tp190
Rp191
sS'UserInfo_3_encoding'
p192
g2
(g6
S'Y\x160\x93\x86R\x91?'
p193
tp194
Rp195
sVLogInfo2_90_unique
p196
g2
(g6
S'z\xc14\xc6v\xe2V?'
p197
tp198
Rp199
sVThirdParty_Info_Period5_10
p200
g2
(g6
S'\x0f\xc6e\xd7\x84B\xb4?'
p201
tp202
Rp203
sVUserInfo_10
p204
g2
(g6
S'S\x15\x84\xbb/\x83t?'
p205
tp206
Rp207
sVUserInfo_17
p208
g2
(g6
S'\xf5\x91M\x82F\xfe\xa7?'
p209
tp210
Rp211
sVSocialNetwork_9
p212
g2
(g6
S'\xc4\xe8\x87\xc8#\x958?'
p213
tp214
Rp215
sVSocialNetwork_10
p216
g2
(g6
S'\xd4^\xa4\xeb\xe8\xa2;?'
p217
tp218
Rp219
sS'UserInfo_15_encoding'
p220
g2
(g6
S'\x1b0\x19\x1a\x8f[\xbf?'
p221
tp222
Rp223
sVLogInfo1_150_avg_count
p224
g2
(g6
S'4\x1e/\x10-\x11\x90?'
p225
tp226
Rp227
s.